; Function Attrs: mustprogress nofree norecurse nosync nounwind willreturn memory(argmem: write) uwtable
define dso_local void @LLVMTargetMachineOptionsSetRelocMode(ptr nocapture noundef writeonly %0, i32 noundef %1) local_unnamed_addr #8 {
switch.lookup:
  %switch.tableidx = add i32 %1, -1
  %2 = icmp ult i32 %switch.tableidx, 6
  %narrow = select i1 %2, i32 %switch.tableidx, i32 0
  %spec.select = zext nneg i32 %narrow to i64
  %spec.select67 = select i1 %2, i64 4294967296, i64 0
  %3 = getelementptr inbounds nuw i8, ptr %0, i64 100
  %.sroa.041.0.insert.insert = or disjoint i64 %spec.select67, %spec.select
  store i64 %.sroa.041.0.insert.insert, ptr %3, align 4
  ret void
}